; ModuleID = '54/273.c'
source_filename = "54/273.c"
target datalayout = "e-m:e-p270:32:32-p271:32:32-p272:64:64-i64:64-f80:128-n8:16:32:64-S128"
target triple = "x86_64-pc-linux-gnu"

@.str = private unnamed_addr constant [6 x i8] c"%d %d\00", align 1
@.str.1 = private unnamed_addr constant [3 x i8] c"%d\00", align 1

; Function Attrs: noinline nounwind uwtable
define dso_local void @main() #0 {
  %1 = alloca i32, align 4
  %2 = alloca i32, align 4
  %3 = alloca i32, align 4
  %4 = alloca i32, align 4
  %5 = alloca i32, align 4
  %6 = call i32 (i8*, ...) @__isoc99_scanf(i8* getelementptr inbounds ([6 x i8], [6 x i8]* @.str, i64 0, i64 0), i32* %1, i32* %2)
  store i32 1, i32* %3, align 4
  br label %7

7:                                                ; preds = %40, %0
  %8 = load i32, i32* %3, align 4
  store i32 %8, i32* %4, align 4
  store i32 1, i32* %5, align 4
  br label %9

9:                                                ; preds = %30, %7
  %10 = load i32, i32* %5, align 4
  %11 = load i32, i32* %1, align 4
  %12 = icmp sle i32 %10, %11
  br i1 %12, label %13, label %33

13:                                               ; preds = %9
  %14 = load i32, i32* %4, align 4
  %15 = load i32, i32* %1, align 4
  %16 = srem i32 %14, %15
  %17 = load i32, i32* %2, align 4
  %18 = icmp eq i32 %16, %17
  br i1 %18, label %19, label %28

19:                                               ; preds = %13
  %20 = load i32, i32* %4, align 4
  %21 = load i32, i32* %2, align 4
  %22 = sub nsw i32 %20, %21
  %23 = load i32, i32* %1, align 4
  %24 = sub nsw i32 %23, 1
  %25 = mul nsw i32 %22, %24
  %26 = load i32, i32* %1, align 4
  %27 = sdiv i32 %25, %26
  store i32 %27, i32* %4, align 4
  br label %29

28:                                               ; preds = %13
  store i32 0, i32* %4, align 4
  br label %33

29:                                               ; preds = %19
  br label %30

30:                                               ; preds = %29
  %31 = load i32, i32* %5, align 4
  %32 = add nsw i32 %31, 1
  store i32 %32, i32* %5, align 4
  br label %9

33:                                               ; preds = %28, %9
  %34 = load i32, i32* %4, align 4
  %35 = icmp ne i32 %34, 0
  br i1 %35, label %36, label %39

36:                                               ; preds = %33
  %37 = load i32, i32* %3, align 4
  %38 = call i32 (i8*, ...) @printf(i8* getelementptr inbounds ([3 x i8], [3 x i8]* @.str.1, i64 0, i64 0), i32 %37)
  br label %43

39:                                               ; preds = %33
  br label %40

40:                                               ; preds = %39
  %41 = load i32, i32* %3, align 4
  %42 = add nsw i32 %41, 1
  store i32 %42, i32* %3, align 4
  br label %7

43:                                               ; preds = %36
  ret void
}

declare dso_local i32 @__isoc99_scanf(i8*, ...) #1

declare dso_local i32 @printf(i8*, ...) #1


!llvm.module.flags = !{!0}
!llvm.ident = !{!1}

!0 = !{i32 1, !"wchar_size", i32 4}
!1 = !{!"clang version 10.0.0-4ubuntu1 "}
